target datalayout = "e-m:e-p270:32:32-p271:32:32-p272:64:64-i64:64-i128:128-f80:128-n8:16:32:64-S128"
target triple = "x86_64-pc-linux-gnu"

%struct.SN_env = type { ptr, i32, i32, i32, i32, i32, ptr, ptr }

@s_23 = internal constant [4 x i8] c"tion", align 1
@s_24 = internal constant [3 x i8] c"ate", align 1
@s_25 = internal constant [2 x i8] c"al", align 1
@s_26 = internal constant [2 x i8] c"ic", align 1

; Function Attrs: nounwind uwtable
define internal i32 @r_R2(ptr noundef %0) #0 {
  %2 = alloca i32, align 4
  %3 = alloca ptr, align 8
  store ptr %0, ptr %3, align 8
  %4 = load ptr, ptr %3, align 8
  %5 = getelementptr inbounds nuw %struct.SN_env, ptr %4, i32 0, i32 7
  %6 = load ptr, ptr %5, align 8
  %7 = getelementptr inbounds i32, ptr %6, i64 0
  %8 = load i32, ptr %7, align 4
  %9 = load ptr, ptr %3, align 8
  %10 = getelementptr inbounds nuw %struct.SN_env, ptr %9, i32 0, i32 1
  %11 = load i32, ptr %10, align 8
  %12 = icmp sle i32 %8, %11
  br i1 %12, label %14, label %13

13:                                               ; preds = %1
  store i32 0, ptr %2, align 4
  br label %15

14:                                               ; preds = %1
  store i32 1, ptr %2, align 4
  br label %15

15:                                               ; preds = %14, %13
  %16 = load i32, ptr %2, align 4
  ret i32 %16
}

; Function Attrs: nounwind uwtable
define internal i32 @r_R1(ptr noundef %0) #0 {
  %2 = alloca i32, align 4
  %3 = alloca ptr, align 8
  store ptr %0, ptr %3, align 8
  %4 = load ptr, ptr %3, align 8
  %5 = getelementptr inbounds nuw %struct.SN_env, ptr %4, i32 0, i32 7
  %6 = load ptr, ptr %5, align 8
  %7 = getelementptr inbounds i32, ptr %6, i64 1
  %8 = load i32, ptr %7, align 4
  %9 = load ptr, ptr %3, align 8
  %10 = getelementptr inbounds nuw %struct.SN_env, ptr %9, i32 0, i32 1
  %11 = load i32, ptr %10, align 8
  %12 = icmp sle i32 %8, %11
  br i1 %12, label %14, label %13

13:                                               ; preds = %1
  store i32 0, ptr %2, align 4
  br label %15

14:                                               ; preds = %1
  store i32 1, ptr %2, align 4
  br label %15

15:                                               ; preds = %14, %13
  %16 = load i32, ptr %2, align 4
  ret i32 %16
}

; Function Attrs: nounwind uwtable
define internal i32 @r_Step_3(ptr noundef %0) #0 {
  %2 = alloca i32, align 4
  %3 = alloca ptr, align 8
  %4 = alloca i32, align 4
  %5 = alloca i32, align 4
  %6 = alloca i32, align 4
  %7 = alloca i32, align 4
  %8 = alloca i32, align 4
  %9 = alloca i32, align 4
  %10 = alloca i32, align 4
  %11 = alloca i32, align 4
  %12 = alloca i32, align 4
  %13 = alloca i32, align 4
  store ptr %0, ptr %3, align 8
  call void @llvm.lifetime.start.p0(i64 4, ptr %4) #3
  %14 = load ptr, ptr %3, align 8
  %15 = getelementptr inbounds nuw %struct.SN_env, ptr %14, i32 0, i32 1
  %16 = load i32, ptr %15, align 8
  %17 = load ptr, ptr %3, align 8
  %18 = getelementptr inbounds nuw %struct.SN_env, ptr %17, i32 0, i32 5
  store i32 %16, ptr %18, align 8
  %19 = load ptr, ptr %3, align 8
  %20 = getelementptr inbounds nuw %struct.SN_env, ptr %19, i32 0, i32 1
  %21 = load i32, ptr %20, align 8
  %22 = sub i32 %21, 2
  %23 = load ptr, ptr %3, align 8
  %24 = getelementptr inbounds nuw %struct.SN_env, ptr %23, i32 0, i32 3
  %25 = load i32, ptr %24, align 8
  %26 = icmp sle i32 %22, %25
  br i1 %26, label %57, label %27

27:                                               ; preds = %1
  %28 = load ptr, ptr %3, align 8
  %29 = getelementptr inbounds nuw %struct.SN_env, ptr %28, i32 0, i32 0
  %30 = load ptr, ptr %29, align 8
  %31 = load ptr, ptr %3, align 8
  %32 = getelementptr inbounds nuw %struct.SN_env, ptr %31, i32 0, i32 1
  %33 = load i32, ptr %32, align 8
  %34 = sub i32 %33, 1
  %35 = sext i32 %34 to i64
  %36 = getelementptr inbounds i8, ptr %30, i64 %35
  %37 = load i8, ptr %36, align 1
  %38 = zext i8 %37 to i32
  %39 = ashr i32 %38, 5
  %40 = icmp ne i32 %39, 3
  br i1 %40, label %57, label %41

41:                                               ; preds = %27
  %42 = load ptr, ptr %3, align 8
  %43 = getelementptr inbounds nuw %struct.SN_env, ptr %42, i32 0, i32 0
  %44 = load ptr, ptr %43, align 8
  %45 = load ptr, ptr %3, align 8
  %46 = getelementptr inbounds nuw %struct.SN_env, ptr %45, i32 0, i32 1
  %47 = load i32, ptr %46, align 8
  %48 = sub i32 %47, 1
  %49 = sext i32 %48 to i64
  %50 = getelementptr inbounds i8, ptr %44, i64 %49
  %51 = load i8, ptr %50, align 1
  %52 = zext i8 %51 to i32
  %53 = and i32 %52, 31
  %54 = ashr i32 528928, %53
  %55 = and i32 %54, 1
  %56 = icmp ne i32 %55, 0
  br i1 %56, label %58, label %57

57:                                               ; preds = %41, %27, %1
  store i32 0, ptr %2, align 4
  store i32 1, ptr %5, align 4
  br label %158

58:                                               ; preds = %41
  %59 = load ptr, ptr %3, align 8
  %60 = call i32 @find_among_b(ptr noundef %59, ptr noundef @a_6, i32 noundef 9)
  store i32 %60, ptr %4, align 4
  %61 = load i32, ptr %4, align 4
  %62 = icmp ne i32 %61, 0
  br i1 %62, label %64, label %63

63:                                               ; preds = %58
  store i32 0, ptr %2, align 4
  store i32 1, ptr %5, align 4
  br label %158

64:                                               ; preds = %58
  %65 = load ptr, ptr %3, align 8
  %66 = getelementptr inbounds nuw %struct.SN_env, ptr %65, i32 0, i32 1
  %67 = load i32, ptr %66, align 8
  %68 = load ptr, ptr %3, align 8
  %69 = getelementptr inbounds nuw %struct.SN_env, ptr %68, i32 0, i32 4
  store i32 %67, ptr %69, align 4
  call void @llvm.lifetime.start.p0(i64 4, ptr %6) #3
  %70 = load ptr, ptr %3, align 8
  %71 = call i32 @r_R1(ptr noundef %70)
  store i32 %71, ptr %6, align 4
  %72 = load i32, ptr %6, align 4
  %73 = icmp sle i32 %72, 0
  br i1 %73, label %74, label %76

74:                                               ; preds = %64
  %75 = load i32, ptr %6, align 4
  store i32 %75, ptr %2, align 4
  store i32 1, ptr %5, align 4
  br label %77

76:                                               ; preds = %64
  store i32 0, ptr %5, align 4
  br label %77

77:                                               ; preds = %76, %74
  call void @llvm.lifetime.end.p0(i64 4, ptr %6) #3
  %78 = load i32, ptr %5, align 4
  switch i32 %78, label %158 [
    i32 0, label %79
  ]

79:                                               ; preds = %77
  %80 = load i32, ptr %4, align 4
  switch i32 %80, label %157 [
    i32 1, label %81
    i32 2, label %92
    i32 3, label %103
    i32 4, label %114
    i32 5, label %125
    i32 6, label %136
  ]

81:                                               ; preds = %79
  call void @llvm.lifetime.start.p0(i64 4, ptr %7) #3
  %82 = load ptr, ptr %3, align 8
  %83 = call i32 @slice_from_s(ptr noundef %82, i32 noundef 4, ptr noundef @s_23)
  store i32 %83, ptr %7, align 4
  %84 = load i32, ptr %7, align 4
  %85 = icmp slt i32 %84, 0
  br i1 %85, label %86, label %88

86:                                               ; preds = %81
  %87 = load i32, ptr %7, align 4
  store i32 %87, ptr %2, align 4
  store i32 1, ptr %5, align 4
  br label %89

88:                                               ; preds = %81
  store i32 0, ptr %5, align 4
  br label %89

89:                                               ; preds = %88, %86
  call void @llvm.lifetime.end.p0(i64 4, ptr %7) #3
  %90 = load i32, ptr %5, align 4
  switch i32 %90, label %158 [
    i32 0, label %91
  ]

91:                                               ; preds = %89
  br label %157

92:                                               ; preds = %79
  call void @llvm.lifetime.start.p0(i64 4, ptr %8) #3
  %93 = load ptr, ptr %3, align 8
  %94 = call i32 @slice_from_s(ptr noundef %93, i32 noundef 3, ptr noundef @s_24)
  store i32 %94, ptr %8, align 4
  %95 = load i32, ptr %8, align 4
  %96 = icmp slt i32 %95, 0
  br i1 %96, label %97, label %99

97:                                               ; preds = %92
  %98 = load i32, ptr %8, align 4
  store i32 %98, ptr %2, align 4
  store i32 1, ptr %5, align 4
  br label %100

99:                                               ; preds = %92
  store i32 0, ptr %5, align 4
  br label %100

100:                                              ; preds = %99, %97
  call void @llvm.lifetime.end.p0(i64 4, ptr %8) #3
  %101 = load i32, ptr %5, align 4
  switch i32 %101, label %158 [
    i32 0, label %102
  ]

102:                                              ; preds = %100
  br label %157

103:                                              ; preds = %79
  call void @llvm.lifetime.start.p0(i64 4, ptr %9) #3
  %104 = load ptr, ptr %3, align 8
  %105 = call i32 @slice_from_s(ptr noundef %104, i32 noundef 2, ptr noundef @s_25)
  store i32 %105, ptr %9, align 4
  %106 = load i32, ptr %9, align 4
  %107 = icmp slt i32 %106, 0
  br i1 %107, label %108, label %110

108:                                              ; preds = %103
  %109 = load i32, ptr %9, align 4
  store i32 %109, ptr %2, align 4
  store i32 1, ptr %5, align 4
  br label %111

110:                                              ; preds = %103
  store i32 0, ptr %5, align 4
  br label %111

111:                                              ; preds = %110, %108
  call void @llvm.lifetime.end.p0(i64 4, ptr %9) #3
  %112 = load i32, ptr %5, align 4
  switch i32 %112, label %158 [
    i32 0, label %113
  ]

113:                                              ; preds = %111
  br label %157

114:                                              ; preds = %79
  call void @llvm.lifetime.start.p0(i64 4, ptr %10) #3
  %115 = load ptr, ptr %3, align 8
  %116 = call i32 @slice_from_s(ptr noundef %115, i32 noundef 2, ptr noundef @s_26)
  store i32 %116, ptr %10, align 4
  %117 = load i32, ptr %10, align 4
  %118 = icmp slt i32 %117, 0
  br i1 %118, label %119, label %121

119:                                              ; preds = %114
  %120 = load i32, ptr %10, align 4
  store i32 %120, ptr %2, align 4
  store i32 1, ptr %5, align 4
  br label %122

121:                                              ; preds = %114
  store i32 0, ptr %5, align 4
  br label %122

122:                                              ; preds = %121, %119
  call void @llvm.lifetime.end.p0(i64 4, ptr %10) #3
  %123 = load i32, ptr %5, align 4
  switch i32 %123, label %158 [
    i32 0, label %124
  ]

124:                                              ; preds = %122
  br label %157

125:                                              ; preds = %79
  call void @llvm.lifetime.start.p0(i64 4, ptr %11) #3
  %126 = load ptr, ptr %3, align 8
  %127 = call i32 @slice_del(ptr noundef %126)
  store i32 %127, ptr %11, align 4
  %128 = load i32, ptr %11, align 4
  %129 = icmp slt i32 %128, 0
  br i1 %129, label %130, label %132

130:                                              ; preds = %125
  %131 = load i32, ptr %11, align 4
  store i32 %131, ptr %2, align 4
  store i32 1, ptr %5, align 4
  br label %133

132:                                              ; preds = %125
  store i32 0, ptr %5, align 4
  br label %133

133:                                              ; preds = %132, %130
  call void @llvm.lifetime.end.p0(i64 4, ptr %11) #3
  %134 = load i32, ptr %5, align 4
  switch i32 %134, label %158 [
    i32 0, label %135
  ]

135:                                              ; preds = %133
  br label %157

136:                                              ; preds = %79
  call void @llvm.lifetime.start.p0(i64 4, ptr %12) #3
  %137 = load ptr, ptr %3, align 8
  %138 = call i32 @r_R2(ptr noundef %137)
  store i32 %138, ptr %12, align 4
  %139 = load i32, ptr %12, align 4
  %140 = icmp sle i32 %139, 0
  br i1 %140, label %141, label %143

141:                                              ; preds = %136
  %142 = load i32, ptr %12, align 4
  store i32 %142, ptr %2, align 4
  store i32 1, ptr %5, align 4
  br label %144

143:                                              ; preds = %136
  store i32 0, ptr %5, align 4
  br label %144

144:                                              ; preds = %143, %141
  call void @llvm.lifetime.end.p0(i64 4, ptr %12) #3
  %145 = load i32, ptr %5, align 4
  switch i32 %145, label %158 [
    i32 0, label %146
  ]

146:                                              ; preds = %144
  call void @llvm.lifetime.start.p0(i64 4, ptr %13) #3
  %147 = load ptr, ptr %3, align 8
  %148 = call i32 @slice_del(ptr noundef %147)
  store i32 %148, ptr %13, align 4
  %149 = load i32, ptr %13, align 4
  %150 = icmp slt i32 %149, 0
  br i1 %150, label %151, label %153

151:                                              ; preds = %146
  %152 = load i32, ptr %13, align 4
  store i32 %152, ptr %2, align 4
  store i32 1, ptr %5, align 4
  br label %154

153:                                              ; preds = %146
  store i32 0, ptr %5, align 4
  br label %154

154:                                              ; preds = %153, %151
  call void @llvm.lifetime.end.p0(i64 4, ptr %13) #3
  %155 = load i32, ptr %5, align 4
  switch i32 %155, label %158 [
    i32 0, label %156
  ]

156:                                              ; preds = %154
  br label %157

157:                                              ; preds = %79, %156, %135, %124, %113, %102, %91
  store i32 1, ptr %2, align 4
  store i32 1, ptr %5, align 4
  br label %158

158:                                              ; preds = %157, %154, %144, %133, %122, %111, %100, %89, %77, %63, %57
  call void @llvm.lifetime.end.p0(i64 4, ptr %4) #3
  %159 = load i32, ptr %2, align 4
  ret i32 %159
}