; Function Attrs: nounwind uwtable
define internal fastcc range(i32 -2147483648, 2) i32 @r_Step_3(ptr noundef initializes((24, 28)) %0) unnamed_addr #0 {
  %2 = getelementptr inbounds nuw i8, ptr %0, i64 8
  %3 = load i32, ptr %2, align 8
  %4 = getelementptr inbounds nuw i8, ptr %0, i64 24
  store i32 %3, ptr %4, align 8
  %5 = add i32 %3, -2
  %6 = getelementptr inbounds nuw i8, ptr %0, i64 16
  %7 = load i32, ptr %6, align 8
  %.not = icmp sgt i32 %5, %7
  br i1 %.not, label %8, label %47

8:                                                ; preds = %1
  %9 = load ptr, ptr %0, align 8
  %10 = add i32 %3, -1
  %11 = sext i32 %10 to i64
  %12 = getelementptr inbounds i8, ptr %9, i64 %11
  %13 = load i8, ptr %12, align 1
  %14 = zext i8 %13 to i32
  %.mask = and i32 %14, 224
  %.not68 = icmp eq i32 %.mask, 96
  br i1 %.not68, label %15, label %47

15:                                               ; preds = %8
  %16 = and i32 %14, 31
  %17 = shl nuw i32 1, %16
  %18 = and i32 %17, 528928
  %.not69 = icmp eq i32 %18, 0
  br i1 %.not69, label %47, label %19

19:                                               ; preds = %15
  %20 = tail call i32 @find_among_b(ptr noundef nonnull %0, ptr noundef nonnull @a_6, i32 noundef 9) #3
  %.not70 = icmp eq i32 %20, 0
  br i1 %.not70, label %47, label %21

21:                                               ; preds = %19
  %22 = load i32, ptr %2, align 8
  %23 = getelementptr inbounds nuw i8, ptr %0, i64 20
  store i32 %22, ptr %23, align 4
  %24 = getelementptr i8, ptr %0, i64 40
  %.val78 = load ptr, ptr %24, align 8
  %25 = getelementptr i8, ptr %.val78, i64 4
  %.val78.val = load i32, ptr %25, align 4
  %.not.i.not = icmp sgt i32 %.val78.val, %22
  br i1 %.not.i.not, label %47, label %26

26:                                               ; preds = %21
  switch i32 %20, label %46 [
    i32 1, label %27
    i32 2, label %30
    i32 3, label %33
    i32 4, label %36
    i32 5, label %39
    i32 6, label %42
  ]

27:                                               ; preds = %26
  %28 = tail call i32 @slice_from_s(ptr noundef nonnull %0, i32 noundef 4, ptr noundef nonnull @s_23) #3
  %29 = icmp sgt i32 %28, -1
  br i1 %29, label %46, label %47

30:                                               ; preds = %26
  %31 = tail call i32 @slice_from_s(ptr noundef nonnull %0, i32 noundef 3, ptr noundef nonnull @s_24) #3
  %32 = icmp sgt i32 %31, -1
  br i1 %32, label %46, label %47

33:                                               ; preds = %26
  %34 = tail call i32 @slice_from_s(ptr noundef nonnull %0, i32 noundef 2, ptr noundef nonnull @s_25) #3
  %35 = icmp sgt i32 %34, -1
  br i1 %35, label %46, label %47

36:                                               ; preds = %26
  %37 = tail call i32 @slice_from_s(ptr noundef nonnull %0, i32 noundef 2, ptr noundef nonnull @s_26) #3
  %38 = icmp sgt i32 %37, -1
  br i1 %38, label %46, label %47

39:                                               ; preds = %26
  %40 = tail call i32 @slice_del(ptr noundef nonnull %0) #3
  %41 = icmp sgt i32 %40, -1
  br i1 %41, label %46, label %47

42:                                               ; preds = %26
  %.val80.val = load i32, ptr %.val78, align 4
  %.not.i81.not = icmp sgt i32 %.val80.val, %22
  br i1 %.not.i81.not, label %47, label %43

43:                                               ; preds = %42
  %44 = tail call i32 @slice_del(ptr noundef nonnull %0) #3
  %45 = icmp sgt i32 %44, -1
  br i1 %45, label %46, label %47

46:                                               ; preds = %43, %39, %36, %33, %30, %27, %26
  br label %47

47:                                               ; preds = %19, %1, %8, %15, %27, %30, %33, %36, %39, %43, %42, %21, %46
  %.0 = phi i32 [ 1, %46 ], [ %44, %43 ], [ 0, %42 ], [ %40, %39 ], [ %37, %36 ], [ %34, %33 ], [ %31, %30 ], [ %28, %27 ], [ 0, %21 ], [ 0, %15 ], [ 0, %8 ], [ 0, %1 ], [ 0, %19 ]
  ret i32 %.0
}